target datalayout = "e-m:e-p270:32:32-p271:32:32-p272:64:64-i64:64-i128:128-f80:128-n8:16:32:64-S128"
target triple = "x86_64-unknown-linux-gnu"

%"class.net::GeneralLossAlgorithm" = type { %"class.net::LossDetectionInterface", %"class.net::QuicTime", i64, i32, i32 }
%"class.net::LossDetectionInterface" = type { ptr }
%"class.net::QuicTime" = type { i64 }

; Function Attrs: mustprogress nounwind uwtable
define linkonce_odr dso_local void @_ZN3net8QuicTimeC2El(ptr noundef nonnull align 8 dereferenceable(8) %this, i64 noundef %time) unnamed_addr #1 comdat align 2 {
entry:
  %this.addr = alloca ptr, align 8
  %time.addr = alloca i64, align 8
  store ptr %this, ptr %this.addr, align 8
  store i64 %time, ptr %time.addr, align 8
  %this1 = load ptr, ptr %this.addr, align 8
  %time_ = getelementptr inbounds %"class.net::QuicTime", ptr %this1, i32 0, i32 0
  %0 = load i64, ptr %time.addr, align 8
  store i64 %0, ptr %time_, align 8
  ret void
}

; Function Attrs: mustprogress uwtable
define linkonce_odr dso_local i64 @_ZN3net8QuicTime4ZeroEv() #0 comdat align 2 {
entry:
  %retval = alloca %"class.net::QuicTime", align 8
  call void @_ZN3net8QuicTimeC2El(ptr noundef nonnull align 8 dereferenceable(8) %retval, i64 noundef 0)
  %coerce.dive = getelementptr inbounds %"class.net::QuicTime", ptr %retval, i32 0, i32 0
  %0 = load i64, ptr %coerce.dive, align 8
  ret i64 %0
}

; Function Attrs: mustprogress uwtable
define dso_local void @_ZN3net20GeneralLossAlgorithm20SetLossDetectionTypeENS_17LossDetectionTypeE(ptr noundef nonnull align 8 dereferenceable(32) %this, i32 noundef %loss_type) #0 align 2 {
entry:
  %this.addr = alloca ptr, align 8
  %loss_type.addr = alloca i32, align 4
  %ref.tmp = alloca %"class.net::QuicTime", align 8
  store ptr %this, ptr %this.addr, align 8
  store i32 %loss_type, ptr %loss_type.addr, align 4
  %this1 = load ptr, ptr %this.addr, align 8
  %call = call i64 @_ZN3net8QuicTime4ZeroEv()
  %coerce.dive = getelementptr inbounds %"class.net::QuicTime", ptr %ref.tmp, i32 0, i32 0
  store i64 %call, ptr %coerce.dive, align 8
  %loss_detection_timeout_ = getelementptr inbounds %"class.net::GeneralLossAlgorithm", ptr %this1, i32 0, i32 1
  call void @llvm.memcpy.p0.p0.i64(ptr align 8 %loss_detection_timeout_, ptr align 8 %ref.tmp, i64 8, i1 false)
  %largest_sent_on_spurious_retransmit_ = getelementptr inbounds %"class.net::GeneralLossAlgorithm", ptr %this1, i32 0, i32 2
  store i64 0, ptr %largest_sent_on_spurious_retransmit_, align 8
  %0 = load i32, ptr %loss_type.addr, align 4
  %loss_type_ = getelementptr inbounds %"class.net::GeneralLossAlgorithm", ptr %this1, i32 0, i32 3
  store i32 %0, ptr %loss_type_, align 8
  %1 = load i32, ptr %loss_type.addr, align 4
  %cmp = icmp eq i32 %1, 2
  %cond = select i1 %cmp, i32 4, i32 2
  %reordering_shift_ = getelementptr inbounds %"class.net::GeneralLossAlgorithm", ptr %this1, i32 0, i32 4
  store i32 %cond, ptr %reordering_shift_, align 4
  ret void
}