; Function Attrs: mustprogress nofree norecurse nosync nounwind willreturn memory(argmem: write) uwtable
define dso_local void @_ZN3net20GeneralLossAlgorithm20SetLossDetectionTypeENS_17LossDetectionTypeE(ptr nocapture noundef nonnull writeonly align 8 dereferenceable(32) %this, i32 noundef %loss_type) local_unnamed_addr #0 align 2 {
entry:
  %loss_detection_timeout_ = getelementptr inbounds i8, ptr %this, i64 8
  %loss_type_ = getelementptr inbounds i8, ptr %this, i64 24
  tail call void @llvm.memset.p0.i64(ptr noundef nonnull align 8 dereferenceable(16) %loss_detection_timeout_, i8 0, i64 16, i1 false)
  store i32 %loss_type, ptr %loss_type_, align 8
  %cmp = icmp eq i32 %loss_type, 2
  %cond = select i1 %cmp, i32 4, i32 2
  %reordering_shift_ = getelementptr inbounds i8, ptr %this, i64 28
  store i32 %cond, ptr %reordering_shift_, align 4
  ret void
}